target datalayout = "e-m:e-p270:32:32-p271:32:32-p272:64:64-i64:64-i128:128-f80:128-n8:16:32:64-S128"
target triple = "x86_64-pc-linux-gnu"

%struct._zend_array = type { %struct._zend_refcounted_h, %union.anon.4, i32, %union.anon.6, i32, i32, i32, i32, i64, ptr }
%struct._zend_refcounted_h = type { i32, %union.anon.3 }
%union.anon.3 = type { i32 }
%union.anon.4 = type { i32 }
%union.anon.6 = type { ptr }
%struct._zend_string = type { %struct._zend_refcounted_h, i64, i64, [1 x i8] }
%struct._zend_class_entry = type { i8, ptr, %union.anon.8, i32, i32, i32, i32, ptr, ptr, ptr, %struct._zend_array, %struct._zend_array, %struct._zend_array, ptr, ptr, ptr, ptr, ptr, ptr, ptr, ptr, ptr, ptr, ptr, ptr, ptr, ptr, ptr, ptr, ptr, ptr, ptr, %union.anon.9, ptr, ptr, ptr, ptr, i32, i32, i32, i32, %union.anon.10, ptr, ptr, ptr, ptr, i32, ptr, ptr, %union.anon.11 }
%union.anon.8 = type { ptr }
%union.anon.9 = type { ptr }
%union.anon.10 = type { ptr }
%union.anon.11 = type { %struct.anon.12 }
%struct.anon.12 = type { ptr, i32, i32 }

@.str.72 = private unnamed_addr constant [23 x i8] c"Cannot redeclare %s %s\00", align 1
@.str.73 = private unnamed_addr constant [54 x i8] c"Cannot redeclare %s %s (previously declared in %s:%d)\00", align 1
@.str.131 = private unnamed_addr constant [6 x i8] c"Trait\00", align 1
@.str.132 = private unnamed_addr constant [6 x i8] c"trait\00", align 1
@.str.133 = private unnamed_addr constant [10 x i8] c"Interface\00", align 1
@.str.134 = private unnamed_addr constant [10 x i8] c"interface\00", align 1
@.str.135 = private unnamed_addr constant [5 x i8] c"Enum\00", align 1
@.str.136 = private unnamed_addr constant [5 x i8] c"enum\00", align 1
@.str.137 = private unnamed_addr constant [6 x i8] c"Class\00", align 1
@.str.138 = private unnamed_addr constant [6 x i8] c"class\00", align 1

; Function Attrs: nounwind uwtable
define dso_local ptr @zend_get_object_type_case(ptr noundef %0, i1 noundef zeroext %1) #0 {
  %3 = alloca ptr, align 8
  %4 = alloca ptr, align 8
  %5 = alloca i8, align 1
  store ptr %0, ptr %4, align 8, !tbaa !66
  %6 = zext i1 %1 to i8
  store i8 %6, ptr %5, align 1, !tbaa !72
  %7 = load ptr, ptr %4, align 8, !tbaa !66
  %8 = getelementptr inbounds nuw %struct._zend_class_entry, ptr %7, i32 0, i32 4
  %9 = load i32, ptr %8, align 4, !tbaa !140
  %10 = and i32 %9, 2
  %11 = icmp ne i32 %10, 0
  br i1 %11, label %12, label %16

12:                                               ; preds = %2
  %13 = load i8, ptr %5, align 1, !tbaa !72, !range !73, !noundef !74
  %14 = trunc i8 %13 to i1
  %15 = select i1 %14, ptr @.str.131, ptr @.str.132
  store ptr %15, ptr %3, align 8
  br label %40

16:                                               ; preds = %2
  %17 = load ptr, ptr %4, align 8, !tbaa !66
  %18 = getelementptr inbounds nuw %struct._zend_class_entry, ptr %17, i32 0, i32 4
  %19 = load i32, ptr %18, align 4, !tbaa !140
  %20 = and i32 %19, 1
  %21 = icmp ne i32 %20, 0
  br i1 %21, label %22, label %26

22:                                               ; preds = %16
  %23 = load i8, ptr %5, align 1, !tbaa !72, !range !73, !noundef !74
  %24 = trunc i8 %23 to i1
  %25 = select i1 %24, ptr @.str.133, ptr @.str.134
  store ptr %25, ptr %3, align 8
  br label %40

26:                                               ; preds = %16
  %27 = load ptr, ptr %4, align 8, !tbaa !66
  %28 = getelementptr inbounds nuw %struct._zend_class_entry, ptr %27, i32 0, i32 4
  %29 = load i32, ptr %28, align 4, !tbaa !140
  %30 = and i32 %29, 268435456
  %31 = icmp ne i32 %30, 0
  br i1 %31, label %32, label %36

32:                                               ; preds = %26
  %33 = load i8, ptr %5, align 1, !tbaa !72, !range !73, !noundef !74
  %34 = trunc i8 %33 to i1
  %35 = select i1 %34, ptr @.str.135, ptr @.str.136
  store ptr %35, ptr %3, align 8
  br label %40

36:                                               ; preds = %26
  %37 = load i8, ptr %5, align 1, !tbaa !72, !range !73, !noundef !74
  %38 = trunc i8 %37 to i1
  %39 = select i1 %38, ptr @.str.137, ptr @.str.138
  store ptr %39, ptr %3, align 8
  br label %40

40:                                               ; preds = %36, %32, %22, %12
  %41 = load ptr, ptr %3, align 8
  ret ptr %41
}

; Function Attrs: alwaysinline nounwind uwtable
define internal ptr @zend_get_object_type(ptr noundef %0) #2 {
  %2 = alloca ptr, align 8
  store ptr %0, ptr %2, align 8, !tbaa !66
  %3 = load ptr, ptr %2, align 8, !tbaa !66
  %4 = call ptr @zend_get_object_type_case(ptr noundef %3, i1 noundef zeroext false)
  ret ptr %4
}

; Function Attrs: nounwind uwtable
define dso_local void @zend_class_redeclaration_error_ex(i32 noundef %0, ptr noundef %1, ptr noundef %2) #0 {
  %4 = alloca i32, align 4
  %5 = alloca ptr, align 8
  %6 = alloca ptr, align 8
  store i32 %0, ptr %4, align 4, !tbaa !4
  store ptr %1, ptr %5, align 8, !tbaa !48
  store ptr %2, ptr %6, align 8, !tbaa !66
  %7 = load ptr, ptr %6, align 8, !tbaa !66
  %8 = getelementptr inbounds nuw %struct._zend_class_entry, ptr %7, i32 0, i32 0
  %9 = load i8, ptr %8, align 8, !tbaa !69
  %10 = sext i8 %9 to i32
  %11 = icmp eq i32 %10, 1
  br i1 %11, label %12, label %19

12:                                               ; preds = %3
  %13 = load i32, ptr %4, align 4, !tbaa !4
  %14 = load ptr, ptr %6, align 8, !tbaa !66
  %15 = call ptr @zend_get_object_type(ptr noundef %14)
  %16 = load ptr, ptr %5, align 8, !tbaa !48
  %17 = getelementptr inbounds nuw %struct._zend_string, ptr %16, i32 0, i32 3
  %18 = getelementptr inbounds [1 x i8], ptr %17, i64 0, i64 0
  call void (i32, ptr, ...) @zend_error(i32 noundef %13, ptr noundef @.str.72, ptr noundef %15, ptr noundef %18)
  br label %36

19:                                               ; preds = %3
  %20 = load i32, ptr %4, align 4, !tbaa !4
  %21 = load ptr, ptr %6, align 8, !tbaa !66
  %22 = call ptr @zend_get_object_type(ptr noundef %21)
  %23 = load ptr, ptr %5, align 8, !tbaa !48
  %24 = getelementptr inbounds nuw %struct._zend_string, ptr %23, i32 0, i32 3
  %25 = getelementptr inbounds [1 x i8], ptr %24, i64 0, i64 0
  %26 = load ptr, ptr %6, align 8, !tbaa !66
  %27 = getelementptr inbounds nuw %struct._zend_class_entry, ptr %26, i32 0, i32 49
  %28 = getelementptr inbounds nuw %struct.anon.12, ptr %27, i32 0, i32 0
  %29 = load ptr, ptr %28, align 8, !tbaa !44
  %30 = getelementptr inbounds nuw %struct._zend_string, ptr %29, i32 0, i32 3
  %31 = getelementptr inbounds [1 x i8], ptr %30, i64 0, i64 0
  %32 = load ptr, ptr %6, align 8, !tbaa !66
  %33 = getelementptr inbounds nuw %struct._zend_class_entry, ptr %32, i32 0, i32 49
  %34 = getelementptr inbounds nuw %struct.anon.12, ptr %33, i32 0, i32 1
  %35 = load i32, ptr %34, align 8, !tbaa !44
  call void (i32, ptr, ...) @zend_error(i32 noundef %20, ptr noundef @.str.73, ptr noundef %22, ptr noundef %25, ptr noundef %31, i32 noundef %35)
  br label %36

36:                                               ; preds = %19, %12
  ret void
}

; Function Attrs: nounwind uwtable
define dso_local void @zend_class_redeclaration_error(i32 noundef %0, ptr noundef %1) #0 {
  %3 = alloca i32, align 4
  %4 = alloca ptr, align 8
  store i32 %0, ptr %3, align 4, !tbaa !4
  store ptr %1, ptr %4, align 8, !tbaa !66
  %5 = load i32, ptr %3, align 4, !tbaa !4
  %6 = load ptr, ptr %4, align 8, !tbaa !66
  %7 = getelementptr inbounds nuw %struct._zend_class_entry, ptr %6, i32 0, i32 1
  %8 = load ptr, ptr %7, align 8, !tbaa !54
  %9 = load ptr, ptr %4, align 8, !tbaa !66
  call void @zend_class_redeclaration_error_ex(i32 noundef %5, ptr noundef %8, ptr noundef %9)
  ret void
}