; Function Attrs: nounwind uwtable
define dso_local void @zend_class_redeclaration_error(i32 noundef %0, ptr noundef readonly captures(none) %1) local_unnamed_addr #2 {
  %3 = getelementptr inbounds nuw i8, ptr %1, i64 8
  %4 = load ptr, ptr %3, align 8, !tbaa !50
  %5 = load i8, ptr %1, align 8, !tbaa !66
  %6 = icmp eq i8 %5, 1
  %7 = getelementptr inbounds nuw i8, ptr %1, i64 28
  %8 = load i32, ptr %7, align 4, !tbaa !67
  %9 = and i32 %8, 2
  %.not.i.i = icmp eq i32 %9, 0
  br i1 %6, label %10, label %16

10:                                               ; preds = %2
  br i1 %.not.i.i, label %11, label %zend_get_object_type_case.exit.i

11:                                               ; preds = %10
  %12 = and i32 %8, 1
  %.not7.i.i = icmp eq i32 %12, 0
  br i1 %.not7.i.i, label %13, label %zend_get_object_type_case.exit.i

13:                                               ; preds = %11
  %14 = and i32 %8, 268435456
  %.not8.i.i = icmp eq i32 %14, 0
  %spec.select.i = select i1 %.not8.i.i, ptr @.str.138, ptr @.str.136
  br label %zend_get_object_type_case.exit.i

zend_get_object_type_case.exit.i:                 ; preds = %13, %11, %10
  %.0.i.i = phi ptr [ @.str.132, %10 ], [ @.str.134, %11 ], [ %spec.select.i, %13 ]
  %15 = getelementptr inbounds nuw i8, ptr %4, i64 24
  tail call void (i32, ptr, ...) @zend_error(i32 noundef %0, ptr noundef nonnull @.str.72, ptr noundef nonnull %.0.i.i, ptr noundef nonnull %15) #34
  br label %zend_class_redeclaration_error_ex.exit

16:                                               ; preds = %2
  br i1 %.not.i.i, label %17, label %zend_get_object_type_case.exit12.i

17:                                               ; preds = %16
  %18 = and i32 %8, 1
  %.not7.i10.i = icmp eq i32 %18, 0
  br i1 %.not7.i10.i, label %19, label %zend_get_object_type_case.exit12.i

19:                                               ; preds = %17
  %20 = and i32 %8, 268435456
  %.not8.i11.i = icmp eq i32 %20, 0
  %spec.select13.i = select i1 %.not8.i11.i, ptr @.str.138, ptr @.str.136
  br label %zend_get_object_type_case.exit12.i

zend_get_object_type_case.exit12.i:               ; preds = %19, %17, %16
  %.0.i9.i = phi ptr [ @.str.132, %16 ], [ @.str.134, %17 ], [ %spec.select13.i, %19 ]
  %21 = getelementptr inbounds nuw i8, ptr %4, i64 24
  %22 = getelementptr inbounds nuw i8, ptr %1, i64 504
  %23 = load ptr, ptr %22, align 8, !tbaa !42
  %24 = getelementptr inbounds nuw i8, ptr %23, i64 24
  %25 = getelementptr inbounds nuw i8, ptr %1, i64 512
  %26 = load i32, ptr %25, align 8, !tbaa !42
  tail call void (i32, ptr, ...) @zend_error(i32 noundef %0, ptr noundef nonnull @.str.73, ptr noundef nonnull %.0.i9.i, ptr noundef nonnull %21, ptr noundef nonnull %24, i32 noundef %26) #34
  br label %zend_class_redeclaration_error_ex.exit

zend_class_redeclaration_error_ex.exit:           ; preds = %zend_get_object_type_case.exit.i, %zend_get_object_type_case.exit12.i
  ret void
}